Certificate:
    Data:
        Version: 3 (0x2)
        Serial Number:
            96:c8:16:33:77:f3:be:ca
    Signature Algorithm: sha256WithRSAEncryption
        Issuer: CN=localhost
        Validity
            Not Before: Dec 29 23:46:41 2018 GMT
            Not After : Dec 29 23:46:41 2019 GMT
        Subject: CN=localhost
        Subject Public Key Info:
            Public Key Algorithm: rsaEncryption
                Public-Key: (2048 bit)
                Modulus:
                    00:d9:dc:e0:4d:00:19:3f:70:36:ec:87:ff:2e:5a:
                    91:37:44:ca:cf:c3:ee:e0:e1:0b:ee:86:07:b5:d5:
                    e2:34:a5:27:46:5a:37:ad:1d:48:85:42:0b:32:e8:
                    b1:b8:b3:13:ca:50:a5:81:b2:d7:3a:bb:23:8c:fb:
                    ae:13:eb:eb:29:e8:74:c5:86:a5:f1:15:82:4b:bf:
                    a5:bb:b7:1b:f8:99:39:dd:dd:81:04:45:39:1b:5a:
                    ad:e2:b2:5d:ec:0f:ff:3f:01:b8:65:3b:8e:06:fc:
                    4e:48:d5:8f:b1:17:99:e9:d6:7f:56:ce:f8:e5:3a:
                    1b:06:97:d5:9f:b8:36:5e:ee:fb:99:56:bb:29:f2:
                    8b:fd:c6:85:bf:0c:33:b8:50:bb:97:91:3c:3d:eb:
                    a2:45:5b:6d:24:c7:b7:65:8e:f7:fb:25:97:3d:84:
                    3a:57:57:f9:ef:e6:8b:aa:67:18:dd:bb:2e:45:b9:
                    01:78:03:8f:2e:9b:c7:f0:c4:42:fa:1a:49:47:60:
                    b2:f1:40:79:36:66:9e:72:cb:ce:f3:ba:e7:ca:11:
                    8b:f3:7c:c0:54:93:4d:9f:f0:c8:8f:89:ed:c1:c1:
                    06:be:22:24:4a:92:e0:2f:26:bf:98:5c:58:ac:cc:
                    81:90:8d:d9:7c:7e:2a:43:c1:67:ad:fa:cf:55:c1:
                    9a:19
                Exponent: 65537 (0x10001)
        X509v3 extensions:
            X509v3 Subject Alternative Name: 
                DNS:localhost, DNS:127.0.0.1, DNS:sensu_backend
            X509v3 Basic Constraints: 
                CA:FALSE
            X509v3 Key Usage: 
                Digital Signature, Non Repudiation, Key Encipherment
    Signature Algorithm: sha256WithRSAEncryption
         42:55:5a:78:7a:5c:9e:c4:48:b5:40:71:e2:82:35:fd:9b:1a:
         87:f5:c3:11:0a:b1:fb:5c:3f:1d:33:5f:27:b7:4e:68:7a:86:
         cd:ec:2a:89:e4:ce:e0:fb:99:49:15:e1:9a:91:52:db:11:d7:
         e3:76:2d:e5:ac:88:9c:c6:21:0a:09:92:48:68:fe:5b:8e:9a:
         2c:15:88:5c:10:89:7b:91:85:97:79:18:96:dd:72:c8:b2:b6:
         03:e7:56:02:2e:34:c7:67:54:41:41:2b:5d:e9:3c:86:76:dd:
         0c:9d:03:09:f0:57:44:f0:52:b6:ee:c7:32:59:86:98:98:bb:
         cf:54:ab:71:10:bf:44:24:5c:21:d4:98:03:98:47:09:c7:e9:
         39:8d:d0:84:99:f2:f8:19:c5:db:9e:ed:ff:55:46:f2:cb:d2:
         65:8c:81:4a:f1:74:47:e3:61:3c:7d:1f:70:a1:cb:26:6d:65:
         57:12:dc:e7:41:78:58:91:ef:e4:8e:a8:b4:08:59:86:a4:fb:
         6d:c5:64:5a:95:a9:98:b6:b4:72:ed:58:2b:29:da:89:96:ac:
         8a:f2:d9:18:0a:57:1b:c1:19:ce:ae:bf:56:42:12:8a:e2:9c:
         4c:70:50:67:05:88:78:24:fc:d0:ab:c6:b6:3f:ed:bc:56:06:
         79:66:76:cd
-----BEGIN CERTIFICATE-----
MIIC9TCCAd2gAwIBAgIJAJbIFjN3877KMA0GCSqGSIb3DQEBCwUAMBQxEjAQBgNV
BAMMCWxvY2FsaG9zdDAeFw0xODEyMjkyMzQ2NDFaFw0xOTEyMjkyMzQ2NDFaMBQx
EjAQBgNVBAMMCWxvY2FsaG9zdDCCASIwDQYJKoZIhvcNAQEBBQADggEPADCCAQoC
ggEBANnc4E0AGT9wNuyH/y5akTdEys/D7uDhC+6GB7XV4jSlJ0ZaN60dSIVCCzLo
sbizE8pQpYGy1zq7I4z7rhPr6ynodMWGpfEVgku/pbu3G/iZOd3dgQRFORtareKy
XewP/z8BuGU7jgb8TkjVj7EXmenWf1bO+OU6GwaX1Z+4Nl7u+5lWuynyi/3Ghb8M
M7hQu5eRPD3rokVbbSTHt2WO9/sllz2EOldX+e/mi6pnGN27LkW5AXgDjy6bx/DE
QvoaSUdgsvFAeTZmnnLLzvO658oRi/N8wFSTTZ/wyI+J7cHBBr4iJEqS4C8mv5hc
WKzMgZCN2Xx+KkPBZ636z1XBmhkCAwEAAaNKMEgwLgYDVR0RBCcwJYIJbG9jYWxo
b3N0ggkxMjcuMC4wLjGCDXNlbnN1X2JhY2tlbmQwCQYDVR0TBAIwADALBgNVHQ8E
BAMCBeAwDQYJKoZIhvcNAQELBQADggEBAEJVWnh6XJ7ESLVAceKCNf2bGof1wxEK
sftcPx0zXye3Tmh6hs3sKonkzuD7mUkV4ZqRUtsR1+N2LeWsiJzGIQoJkkho/luO
miwViFwQiXuRhZd5GJbdcsiytgPnVgIuNMdnVEFBK13pPIZ23QydAwnwV0TwUrbu
xzJZhpiYu89Uq3EQv0QkXCHUmAOYRwnH6TmN0ISZ8vgZxdue7f9VRvLL0mWMgUrx
dEfjYTx9H3ChyyZtZVcS3OdBeFiR7+SOqLQIWYak+23FZFqVqZi2tHLtWCsp2omW
rIry2RgKVxvBGc6uv1ZCEorinExwUGcFiHgk/NCrxrY/7bxWBnlmds0=
-----END CERTIFICATE-----
